; Function Attrs: nounwind uwtable
define internal ptr @bytes_concatanddel(ptr readnone captures(none) %0, ptr noundef %1) #0 {
  %3 = alloca ptr, align 8
  %4 = alloca ptr, align 8
  %5 = alloca i32, align 4
  call void @llvm.lifetime.start.p0(i64 8, ptr nonnull %3) #4
  call void @llvm.lifetime.start.p0(i64 8, ptr nonnull %4) #4
  call void @llvm.lifetime.start.p0(i64 4, ptr nonnull %5) #4
  store i32 0, ptr %5, align 4, !tbaa !15
  %6 = call i32 (ptr, ptr, ...) @PyArg_ParseTuple(ptr noundef %1, ptr noundef nonnull @.str.23, ptr noundef nonnull %3, ptr noundef nonnull %4, ptr noundef nonnull %5) #4
  %.not = icmp eq i32 %6, 0
  br i1 %.not, label %._crit_edge, label %7

7:                                                ; preds = %2
  %8 = load ptr, ptr %3, align 8, !tbaa !13
  %9 = icmp eq ptr %8, @_Py_NoneStruct
  br i1 %9, label %10, label %11

10:                                               ; preds = %7
  store ptr null, ptr %3, align 8, !tbaa !13
  br label %11

11:                                               ; preds = %7, %10
  %12 = phi ptr [ %8, %7 ], [ null, %10 ]
  %13 = load ptr, ptr %4, align 8, !tbaa !13
  %14 = icmp eq ptr %13, @_Py_NoneStruct
  br i1 %14, label %15, label %16

15:                                               ; preds = %11
  store ptr null, ptr %4, align 8, !tbaa !13
  br label %16

16:                                               ; preds = %15, %11
  %17 = load i32, ptr %5, align 4, !tbaa !15
  %.not3 = icmp eq i32 %17, 0
  %.not.i = icmp eq ptr %12, null
  br i1 %.not3, label %29, label %18

18:                                               ; preds = %16
  br i1 %.not.i, label %19, label %20

19:                                               ; preds = %18
  call void @__assert_fail(ptr noundef nonnull @.str.24, ptr noundef nonnull @.str.17, i32 noundef 192, ptr noundef nonnull @__PRETTY_FUNCTION__.bytes_concatanddel) #5
  unreachable

20:                                               ; preds = %18
  %21 = getelementptr i8, ptr %12, i64 8
  %.val = load ptr, ptr %21, align 8, !tbaa !3
  %.not9 = icmp eq ptr %.val, @PyBytes_Type
  br i1 %.not9, label %23, label %22

22:                                               ; preds = %20
  call void @__assert_fail(ptr noundef nonnull @.str.25, ptr noundef nonnull @.str.17, i32 noundef 193, ptr noundef nonnull @__PRETTY_FUNCTION__.bytes_concatanddel) #5
  unreachable

23:                                               ; preds = %20
  %24 = call ptr @PyBytes_AsString(ptr noundef nonnull %12) #4
  %25 = load ptr, ptr %3, align 8, !tbaa !13
  %26 = call i64 @PyBytes_Size(ptr noundef %25) #4
  %27 = call ptr @PyBytes_FromStringAndSize(ptr noundef %24, i64 noundef %26) #4
  store ptr %27, ptr %3, align 8, !tbaa !13
  %28 = icmp eq ptr %27, null
  br i1 %28, label %._crit_edge, label %Py_XINCREF.exit

29:                                               ; preds = %16
  br i1 %.not.i, label %Py_XINCREF.exit, label %30

30:                                               ; preds = %29
  %31 = load i32, ptr %12, align 8, !tbaa !17
  %32 = icmp slt i32 %31, 0
  br i1 %32, label %Py_XINCREF.exit, label %33

33:                                               ; preds = %30
  %34 = add nuw i32 %31, 1
  store i32 %34, ptr %12, align 8, !tbaa !17
  br label %Py_XINCREF.exit

Py_XINCREF.exit:                                  ; preds = %33, %30, %29, %23
  %35 = load ptr, ptr %4, align 8, !tbaa !13
  %.not.i7 = icmp eq ptr %35, null
  br i1 %.not.i7, label %Py_XINCREF.exit8, label %36

36:                                               ; preds = %Py_XINCREF.exit
  %37 = load i32, ptr %35, align 8, !tbaa !17
  %38 = icmp slt i32 %37, 0
  br i1 %38, label %Py_XINCREF.exit8, label %39

39:                                               ; preds = %36
  %40 = add nuw i32 %37, 1
  store i32 %40, ptr %35, align 8, !tbaa !17
  %.pre = load ptr, ptr %4, align 8, !tbaa !13
  br label %Py_XINCREF.exit8

Py_XINCREF.exit8:                                 ; preds = %Py_XINCREF.exit, %36, %39
  %41 = phi ptr [ null, %Py_XINCREF.exit ], [ %35, %36 ], [ %.pre, %39 ]
  call void @PyBytes_ConcatAndDel(ptr noundef nonnull %3, ptr noundef %41) #4
  %42 = load ptr, ptr %3, align 8, !tbaa !13
  %43 = icmp eq ptr %42, null
  br i1 %43, label %44, label %._crit_edge

44:                                               ; preds = %Py_XINCREF.exit8
  %45 = call ptr @PyErr_Occurred() #4
  %.not6 = icmp eq ptr %45, null
  %.pre10 = load ptr, ptr %3, align 8
  %spec.select = select i1 %.not6, ptr @_Py_NoneStruct, ptr %.pre10
  br label %._crit_edge

._crit_edge:                                      ; preds = %44, %Py_XINCREF.exit8, %23, %2
  %.0 = phi ptr [ null, %2 ], [ null, %23 ], [ %42, %Py_XINCREF.exit8 ], [ %spec.select, %44 ]
  call void @llvm.lifetime.end.p0(i64 4, ptr nonnull %5) #4
  call void @llvm.lifetime.end.p0(i64 8, ptr nonnull %4) #4
  call void @llvm.lifetime.end.p0(i64 8, ptr nonnull %3) #4
  ret ptr %.0
}